; Function Attrs: mustprogress uwtable
define hidden noundef ptr @_ZN17duckdb_libpgquery12makeTypeNameEPc(ptr noundef %0) local_unnamed_addr #0 {
  %2 = tail call noundef ptr @_ZN17duckdb_libpgquery10makeStringEPKc(ptr noundef %0)
  %3 = tail call noundef ptr @_ZN17duckdb_libpgquery5lconsEPvPNS_6PGListE(ptr noundef %2, ptr noundef null)
  %4 = tail call noundef ptr @_ZN17duckdb_libpgquery7newNodeEmNS_9PGNodeTagE(i64 noundef 56, i32 noundef 372)
  %5 = getelementptr inbounds nuw i8, ptr %4, i64 8
  store ptr %3, ptr %5, align 8, !tbaa !38
  %6 = getelementptr inbounds nuw i8, ptr %4, i64 24
  store ptr null, ptr %6, align 8, !tbaa !40
  %7 = getelementptr inbounds nuw i8, ptr %4, i64 32
  store i32 -1, ptr %7, align 8, !tbaa !41
  %8 = getelementptr inbounds nuw i8, ptr %4, i64 48
  store i32 -1, ptr %8, align 8, !tbaa !42
  ret ptr %4
}